; Function Attrs: mustprogress uwtable
define dso_local void @_ZNK4pbrt9Primitive6BoundsEv(ptr dead_on_unwind noalias writable sret(%"class.pbrt::Bounds3") align 4 %0, ptr noundef nonnull readonly align 8 captures(none) dereferenceable(8) %1) local_unnamed_addr #2 align 2 {
  %3 = load i64, ptr %1, align 8, !tbaa !4, !noalias !9
  %4 = and i64 %3, 144115188075855871
  %5 = inttoptr i64 %4 to ptr
  %6 = lshr i64 %3, 57
  %7 = trunc nuw nsw i64 %6 to i32
  %8 = add nsw i32 %7, -1
  tail call fastcc void @"_ZN4pbrt6detail11DispatchCPUIRZNKS_9Primitive6BoundsEvE3$_0NS_7Bounds3IfEENS_15SimplePrimitiveENS_18GeometricPrimitiveENS_20TransformedPrimitiveENS_17AnimatedPrimitiveENS_12BVHAggregateENS_15KdTreeAggregateEEEDaOT_PKvi"(ptr dead_on_unwind noalias writable align 4 %0, ptr noundef %5, i32 noundef %8)
  ret void
}